; Function Attrs: nounwind uwtable
define zeroext range(i8 0, 2) i8 @l_Lean_Compiler_LCNF_PassInstaller_installAfter___elambda__1___lambda__1(ptr noundef %0, ptr noundef %1, ptr noundef readonly captures(none) %2) local_unnamed_addr #1 {
  %4 = getelementptr inbounds nuw i8, ptr %2, i64 16
  %5 = load ptr, ptr %4, align 8, !tbaa !10
  %6 = tail call zeroext i8 @lean_name_eq(ptr noundef %5, ptr noundef %0) #6
  %7 = icmp eq i8 %6, 0
  br i1 %7, label %19, label %8

8:                                                ; preds = %3
  %9 = getelementptr inbounds nuw i8, ptr %2, i64 8
  %10 = load ptr, ptr %9, align 8, !tbaa !10
  %11 = ptrtoint ptr %10 to i64
  %12 = ptrtoint ptr %1 to i64
  %13 = and i64 %12, 1
  %14 = and i64 %13, %11
  %or.cond.not = icmp eq i64 %14, 0
  br i1 %or.cond.not, label %.critedge.i, label %15, !prof !19

15:                                               ; preds = %8
  %16 = icmp eq ptr %10, %1
  br label %lean_nat_eq.exit

.critedge.i:                                      ; preds = %8
  %17 = tail call zeroext i1 @lean_nat_big_eq(ptr noundef %10, ptr noundef %1) #6
  br label %lean_nat_eq.exit

lean_nat_eq.exit:                                 ; preds = %15, %.critedge.i
  %.0.i = phi i1 [ %16, %15 ], [ %17, %.critedge.i ]
  %18 = zext i1 %.0.i to i8
  br label %19

19:                                               ; preds = %3, %lean_nat_eq.exit
  %.0 = phi i8 [ %18, %lean_nat_eq.exit ], [ 0, %3 ]
  ret i8 %.0
}